target datalayout = "e-m:e-p270:32:32-p271:32:32-p272:64:64-i64:64-i128:128-f80:128-n8:16:32:64-S128"
target triple = "x86_64-pc-linux-gnu"

%struct.ScanKeyData = type { i32, i16, i16, i32, i32, %struct.FmgrInfo, i64 }
%struct.FmgrInfo = type { ptr, i32, i16, i8, i8, i8, ptr, ptr, ptr }

; Function Attrs: inlinehint nounwind uwtable
define internal i64 @ObjectIdGetDatum(i32 noundef %0) #3 {
  %2 = alloca i32, align 4
  store i32 %0, ptr %2, align 4
  %3 = load i32, ptr %2, align 4
  %4 = zext i32 %3 to i64
  ret i64 %4
}

; Function Attrs: nounwind uwtable
define dso_local zeroext i1 @has_superclass(i32 noundef %0) #0 {
  %2 = alloca i32, align 4
  %3 = alloca ptr, align 8
  %4 = alloca ptr, align 8
  %5 = alloca %struct.ScanKeyData, align 8
  %6 = alloca i8, align 1
  store i32 %0, ptr %2, align 4
  call void @llvm.lifetime.start.p0(i64 8, ptr %3) #6
  call void @llvm.lifetime.start.p0(i64 8, ptr %4) #6
  call void @llvm.lifetime.start.p0(i64 72, ptr %5) #6
  call void @llvm.lifetime.start.p0(i64 1, ptr %6) #6
  %7 = call ptr @table_open(i32 noundef 2611, i32 noundef 1)
  store ptr %7, ptr %3, align 8
  %8 = load i32, ptr %2, align 4
  %9 = call i64 @ObjectIdGetDatum(i32 noundef %8)
  call void @ScanKeyInit(ptr noundef %5, i16 noundef signext 1, i16 noundef zeroext 3, i32 noundef 184, i64 noundef %9)
  %10 = load ptr, ptr %3, align 8
  %11 = call ptr @systable_beginscan(ptr noundef %10, i32 noundef 2680, i1 noundef zeroext true, ptr noundef null, i32 noundef 1, ptr noundef %5)
  store ptr %11, ptr %4, align 8
  %12 = load ptr, ptr %4, align 8
  %13 = call ptr @systable_getnext(ptr noundef %12)
  %14 = icmp ne ptr %13, null
  %15 = zext i1 %14 to i8
  store i8 %15, ptr %6, align 1
  %16 = load ptr, ptr %4, align 8
  call void @systable_endscan(ptr noundef %16)
  %17 = load ptr, ptr %3, align 8
  call void @table_close(ptr noundef %17, i32 noundef 1)
  %18 = load i8, ptr %6, align 1, !range !4, !noundef !5
  %19 = trunc i8 %18 to i1
  call void @llvm.lifetime.end.p0(i64 1, ptr %6) #6
  call void @llvm.lifetime.end.p0(i64 72, ptr %5) #6
  call void @llvm.lifetime.end.p0(i64 8, ptr %4) #6
  call void @llvm.lifetime.end.p0(i64 8, ptr %3) #6
  ret i1 %19
}